target datalayout = "e-m:e-p270:32:32-p271:32:32-p272:64:64-i64:64-i128:128-f80:128-n8:16:32:64-S128"
target triple = "x86_64-pc-linux-gnu"

%struct.opj_stream_private = type { ptr, ptr, i64, ptr, ptr, ptr, ptr, ptr, ptr, ptr, ptr, i64, i64, i64, i32 }

; Function Attrs: nounwind uwtable
define hidden void @opj_stream_set_user_data(ptr noundef %0, ptr noundef %1, ptr noundef %2) #0 {
  %4 = alloca ptr, align 8
  %5 = alloca ptr, align 8
  %6 = alloca ptr, align 8
  %7 = alloca ptr, align 8
  %8 = alloca i32, align 4
  store ptr %0, ptr %4, align 8, !tbaa !52
  store ptr %1, ptr %5, align 8, !tbaa !51
  store ptr %2, ptr %6, align 8, !tbaa !51
  call void @llvm.lifetime.start.p0(i64 8, ptr %7) #4
  %9 = load ptr, ptr %4, align 8, !tbaa !52
  store ptr %9, ptr %7, align 8, !tbaa !30
  %10 = load ptr, ptr %7, align 8, !tbaa !30
  %11 = icmp ne ptr %10, null
  br i1 %11, label %13, label %12

12:                                               ; preds = %3
  store i32 1, ptr %8, align 4
  br label %20

13:                                               ; preds = %3
  %14 = load ptr, ptr %5, align 8, !tbaa !51
  %15 = load ptr, ptr %7, align 8, !tbaa !30
  %16 = getelementptr inbounds nuw %struct.opj_stream_private, ptr %15, i32 0, i32 0
  store ptr %14, ptr %16, align 8, !tbaa !48
  %17 = load ptr, ptr %6, align 8, !tbaa !51
  %18 = load ptr, ptr %7, align 8, !tbaa !30
  %19 = getelementptr inbounds nuw %struct.opj_stream_private, ptr %18, i32 0, i32 1
  store ptr %17, ptr %19, align 8, !tbaa !54
  store i32 0, ptr %8, align 4
  br label %20

20:                                               ; preds = %13, %12
  call void @llvm.lifetime.end.p0(i64 8, ptr %7) #4
  %21 = load i32, ptr %8, align 4
  switch i32 %21, label %23 [
    i32 0, label %22
    i32 1, label %22
  ]

22:                                               ; preds = %20, %20
  ret void

23:                                               ; preds = %20
  unreachable
}