; Function Attrs: mustprogress nofree norecurse nosync nounwind willreturn memory(argmem: write) uwtable
define hidden void @opj_stream_set_user_data(ptr noundef writeonly %0, ptr noundef %1, ptr noundef %2) local_unnamed_addr #4 {
  %.not = icmp eq ptr %0, null
  br i1 %.not, label %6, label %4

4:                                                ; preds = %3
  store ptr %1, ptr %0, align 8, !tbaa !36
  %5 = getelementptr inbounds nuw i8, ptr %0, i64 8
  store ptr %2, ptr %5, align 8, !tbaa !40
  br label %6

6:                                                ; preds = %3, %4
  ret void
}